; Function Attrs: mustprogress uwtable
define void @_Z14xvgrNewDatasetP8_IO_FILEiN3gmx8ArrayRefIKNSt7__cxx1112basic_stringIcSt11char_traitsIcESaIcEEEEEPK16gmx_output_env_t(ptr nocapture noundef %0, i32 noundef %1, ptr %2, ptr readnone %3, ptr noundef %4) local_unnamed_addr #0 {
  %6 = alloca [4096 x i8], align 16
  %7 = tail call noundef i32 @_Z25output_env_get_xvg_formatPK16gmx_output_env_t(ptr noundef %4)
  %8 = icmp ult i32 %7, 2
  br i1 %8, label %9, label %19

9:                                                ; preds = %5
  %10 = tail call i64 @fwrite(ptr nonnull @.str.42, i64 2, i64 1, ptr %0)
  %.not21 = icmp eq ptr %2, %3
  br i1 %.not21, label %.loopexit, label %.lr.ph

.lr.ph:                                           ; preds = %9, %16
  %.023 = phi i32 [ %17, %16 ], [ %1, %9 ]
  %.sroa.0.022 = phi ptr [ %18, %16 ], [ %2, %9 ]
  %11 = call noundef zeroext i1 @_ZNKSt7__cxx1112basic_stringIcSt11char_traitsIcESaIcEE5emptyEv(ptr noundef nonnull align 8 dereferenceable(32) %.sroa.0.022) #20
  br i1 %11, label %16, label %.sink.split

.sink.split:                                      ; preds = %.lr.ph
  %12 = call noundef i32 @_Z25output_env_get_xvg_formatPK16gmx_output_env_t(ptr noundef %4)
  %13 = icmp eq i32 %12, 1
  %14 = call fastcc noundef ptr @_ZL7xvgrstrRKNSt7__cxx1112basic_stringIcSt11char_traitsIcESaIcEEEPK16gmx_output_env_tPci(ptr noundef nonnull align 8 dereferenceable(32) %.sroa.0.022, ptr noundef %4, ptr noundef nonnull %6)
  %.str.40..str.41 = select i1 %13, ptr @.str.40, ptr @.str.41
  %15 = call i32 (ptr, ptr, ...) @fprintf(ptr noundef %0, ptr noundef nonnull %.str.40..str.41, i32 noundef %.023, ptr noundef nonnull %6) #20
  br label %16

16:                                               ; preds = %.sink.split, %.lr.ph
  %17 = add nsw i32 %.023, 1
  %18 = getelementptr inbounds i8, ptr %.sroa.0.022, i64 32
  %.not = icmp eq ptr %18, %3
  br i1 %.not, label %.loopexit, label %.lr.ph

19:                                               ; preds = %5
  %fputc = tail call i32 @fputc(i32 10, ptr %0)
  br label %.loopexit

.loopexit:                                        ; preds = %16, %9, %19
  ret void
}